; Function Attrs: nounwind sspstrong uwtable
define internal void @vfio_intx_eoi(ptr noundef %vbasedev) #0 {
entry:
  %_now.i.i = alloca %struct.timeval, align 8
  %intx = getelementptr i8, ptr %vbasedev, i64 152
  %0 = load i8, ptr %intx, align 8
  %tobool = trunc i8 %0 to i1
  br i1 %tobool, label %if.end, label %return

if.end:                                           ; preds = %entry
  %add.ptr = getelementptr i8, ptr %vbasedev, i64 -2608
  %name = getelementptr inbounds nuw i8, ptr %vbasedev, i64 72
  %1 = load ptr, ptr %name, align 8
  call void @llvm.lifetime.start.p0(i64 16, ptr nonnull %_now.i.i)
  %2 = load i32, ptr @trace_events_enabled_count, align 4
  %tobool.i.i = icmp ne i32 %2, 0
  %3 = load i16, ptr @_TRACE_VFIO_INTX_EOI_DSTATE, align 2
  %tobool4.i.i = icmp ne i16 %3, 0
  %or.cond.i.i = select i1 %tobool.i.i, i1 %tobool4.i.i, i1 false
  br i1 %or.cond.i.i, label %land.lhs.true5.i.i, label %trace_vfio_intx_eoi.exit

land.lhs.true5.i.i:                               ; preds = %if.end
  %4 = load i32, ptr @qemu_loglevel, align 4
  %and.i.i.i = and i32 %4, 32768
  %cmp.i.not.i.i = icmp eq i32 %and.i.i.i, 0
  br i1 %cmp.i.not.i.i, label %trace_vfio_intx_eoi.exit, label %if.then.i.i

if.then.i.i:                                      ; preds = %land.lhs.true5.i.i
  %5 = load i8, ptr @message_with_timestamp, align 1
  %tobool7.i.i = trunc i8 %5 to i1
  br i1 %tobool7.i.i, label %if.then8.i.i, label %if.else.i.i

if.then8.i.i:                                     ; preds = %if.then.i.i
  %call9.i.i = call i32 @gettimeofday(ptr noundef nonnull %_now.i.i, ptr noundef null) #23
  %call10.i.i = tail call i32 @qemu_get_thread_id() #23
  %6 = load i64, ptr %_now.i.i, align 8
  %tv_usec.i.i = getelementptr inbounds nuw i8, ptr %_now.i.i, i64 8
  %7 = load i64, ptr %tv_usec.i.i, align 8
  tail call void (ptr, ...) @qemu_log(ptr noundef nonnull @.str.143, i32 noundef %call10.i.i, i64 noundef %6, i64 noundef %7, ptr noundef %1) #23
  br label %trace_vfio_intx_eoi.exit

if.else.i.i:                                      ; preds = %if.then.i.i
  tail call void (ptr, ...) @qemu_log(ptr noundef nonnull @.str.144, ptr noundef %1) #23
  br label %trace_vfio_intx_eoi.exit

trace_vfio_intx_eoi.exit:                         ; preds = %if.end, %land.lhs.true5.i.i, %if.then8.i.i, %if.else.i.i
  call void @llvm.lifetime.end.p0(i64 16, ptr nonnull %_now.i.i)
  store i8 0, ptr %intx, align 8
  tail call void @pci_set_irq(ptr noundef %add.ptr, i32 noundef 0) #23
  tail call void @vfio_unmask_single_irqindex(ptr noundef nonnull %vbasedev, i32 noundef 0) #23
  br label %return

return:                                           ; preds = %entry, %trace_vfio_intx_eoi.exit
  ret void
}